Certificate:
    Data:
        Version: 3 (0x2)
        Serial Number: 1 (0x1)
    Signature Algorithm: sha1WithRSAEncryption
        Issuer: CN=MyOwn Root Certificate Authority, ST=NC, C=US/emailAddress=root@tradeshowhell.com, O=Trade Show Hell, OU=IT Department
        Validity
            Not Before: Jan 20 07:10:30 2015 GMT
            Not After : Jan 19 07:10:30 2020 GMT
        Subject: CN=tradeshowhell.com, ST=NC, C=US/emailAddress=root@tradeshowhell.com, O=My Organization Name, OU=Subunit of My Large Organization
        Subject Public Key Info:
            Public Key Algorithm: rsaEncryption
                Public-Key: (1024 bit)
                Modulus:
                    00:a0:20:2c:b9:dc:45:ba:68:52:43:53:6a:6f:d9:
                    e3:e9:a5:0e:b7:8e:8a:f6:27:af:94:7f:fa:e6:7e:
                    82:33:e8:1c:11:06:b0:a2:0c:f4:69:41:05:d4:44:
                    20:a1:9d:6e:25:83:bb:f5:11:a2:13:20:b4:5b:ad:
                    b7:b1:70:9e:68:bd:d8:aa:c7:49:6a:98:7b:c3:39:
                    ac:ca:5a:48:aa:29:62:da:be:b1:eb:73:fe:2f:e7:
                    6c:28:00:d0:0f:e3:19:3b:3c:06:ff:aa:6f:27:21:
                    2e:21:a0:64:f0:87:06:9d:13:40:1d:97:c4:6e:56:
                    d7:2b:4a:4b:b3:ab:b1:19:df
                Exponent: 65537 (0x10001)
        X509v3 extensions:
            X509v3 Basic Constraints: 
                CA:FALSE
            X509v3 Key Usage: 
                Digital Signature, Non Repudiation, Key Encipherment
            X509v3 Subject Alternative Name: 
                DNS:tradeshowhell.com, DNS:alt.tradeshowhell.com
    Signature Algorithm: sha1WithRSAEncryption
         a2:32:1a:66:0f:64:49:cf:81:cb:39:15:21:23:d1:17:3b:61:
         a3:57:19:26:1a:72:cd:5e:e2:cc:e9:dd:9c:9d:7c:21:b7:64:
         35:b3:9b:ae:5d:47:84:af:d6:9e:a4:cb:16:f5:ec:5e:2b:db:
         bd:bd:f5:b4:99:ef:53:18:70:36:74:9e:fe:40:f1:32:eb:13:
         fe:1d:c5:4b:b8:fd:a3:20:ce:c8:e4:05:05:98:a6:3d:1c:2a:
         65:b3:5e:58:1d:ad:23:09:a0:a1:59:a6:25:8f:fb:9b:30:5f:
         70:b7:8b:ba:df:fd:33:a8:8b:f1:bf:a0:24:c1:41:a9:1b:3f:
         7d:5d:d3:32:a7:fe:86:a8:d8:bb:52:ae:d1:00:ee:73:f5:1a:
         88:31:dc:a4:db:72:15:a4:be:d1:85:b7:29:d0:68:73:9b:37:
         77:e8:57:11:74:f1:70:65:dd:f4:74:48:08:b1:4a:ad:fa:cb:
         59:19:f2:27:43:04:0e:a6:63:69:99:7a:11:25:c2:02:ca:a0:
         54:67:d5:be:3d:61:27:71:09:c0:7e:38:04:cb:9d:0b:5e:6f:
         dd:4c:22:e6:2b:30:93:30:ce:cd:a4:4b:1f:7d:60:84:5b:20:
         85:7a:53:72:49:02:77:7b:91:38:7f:cf:97:e4:22:eb:0d:fb:
         13:37:36:16
-----BEGIN CERTIFICATE-----
MIIDjTCCAnWgAwIBAgIBATANBgkqhkiG9w0BAQUFADCBnjEpMCcGA1UEAwwgTXlP
d24gUm9vdCBDZXJ0aWZpY2F0ZSBBdXRob3JpdHkxCzAJBgNVBAgMAk5DMQswCQYD
VQQGEwJVUzElMCMGCSqGSIb3DQEJARYWcm9vdEB0cmFkZXNob3doZWxsLmNvbTEY
MBYGA1UECgwPVHJhZGUgU2hvdyBIZWxsMRYwFAYDVQQLDA1JVCBEZXBhcnRtZW50
MB4XDTE1MDEyMDA3MTAzMFoXDTIwMDExOTA3MTAzMFowgacxGjAYBgNVBAMMEXRy
YWRlc2hvd2hlbGwuY29tMQswCQYDVQQIDAJOQzELMAkGA1UEBhMCVVMxJTAjBgkq
hkiG9w0BCQEWFnJvb3RAdHJhZGVzaG93aGVsbC5jb20xHTAbBgNVBAoMFE15IE9y
Z2FuaXphdGlvbiBOYW1lMSkwJwYDVQQLDCBTdWJ1bml0IG9mIE15IExhcmdlIE9y
Z2FuaXphdGlvbjCBnzANBgkqhkiG9w0BAQEFAAOBjQAwgYkCgYEAoCAsudxFumhS
Q1Nqb9nj6aUOt46K9ievlH/65n6CM+gcEQawogz0aUEF1EQgoZ1uJYO79RGiEyC0
W623sXCeaL3YqsdJaph7wzmsylpIqili2r6x63P+L+dsKADQD+MZOzwG/6pvJyEu
IaBk8IcGnRNAHZfEblbXK0pLs6uxGd8CAwEAAaNPME0wCQYDVR0TBAIwADALBgNV
HQ8EBAMCBeAwMwYDVR0RBCwwKoIRdHJhZGVzaG93aGVsbC5jb22CFWFsdC50cmFk
ZXNob3doZWxsLmNvbTANBgkqhkiG9w0BAQUFAAOCAQEAojIaZg9kSc+ByzkVISPR
Fztho1cZJhpyzV7izOndnJ18IbdkNbObrl1HhK/WnqTLFvXsXivbvb31tJnvUxhw
NnSe/kDxMusT/h3FS7j9oyDOyOQFBZimPRwqZbNeWB2tIwmgoVmmJY/7mzBfcLeL
ut/9M6iL8b+gJMFBqRs/fV3TMqf+hqjYu1Ku0QDuc/UaiDHcpNtyFaS+0YW3KdBo
c5s3d+hXEXTxcGXd9HRICLFKrfrLWRnyJ0MEDqZjaZl6ESXCAsqgVGfVvj1hJ3EJ
wH44BMudC15v3Uwi5iswkzDOzaRLH31ghFsghXpTckkCd3uROH/Pl+Qi6w37Ezc2
Fg==
-----END CERTIFICATE-----
